; Function Attrs: null_pointer_is_valid sspstrong uwtable
define internal fastcc noundef i32 @dissect_rsl_ie_cb_cmd_type(ptr noundef %0, ptr noundef %1, i32 noundef %2) unnamed_addr #0 {
  %4 = load i32, ptr @ett_ie_cb_cmd_type, align 4
  %5 = tail call ptr @proto_tree_add_subtree(ptr noundef %1, ptr noundef %0, i32 noundef %2, i32 noundef 0, i32 noundef %4, ptr noundef null, ptr noundef nonnull @.str.784)
  %6 = load i32, ptr @hf_rsl_ie_id, align 4
  %7 = tail call ptr @proto_tree_add_item(ptr noundef %5, i32 noundef %6, ptr noundef %0, i32 noundef %2, i32 noundef 1, i32 noundef 0)
  %8 = add i32 %2, 1
  %9 = load i32, ptr @hf_rsl_cb_cmd_type, align 4
  %10 = tail call ptr @proto_tree_add_item(ptr noundef %5, i32 noundef %9, ptr noundef %0, i32 noundef %8, i32 noundef 1, i32 noundef 0)
  %11 = load i32, ptr @hf_rsl_cb_def_bcast, align 4
  %12 = tail call ptr @proto_tree_add_item(ptr noundef %5, i32 noundef %11, ptr noundef %0, i32 noundef %8, i32 noundef 1, i32 noundef 0)
  %13 = load i32, ptr @hf_rsl_cb_last_block, align 4
  %14 = tail call ptr @proto_tree_add_item(ptr noundef %5, i32 noundef %13, ptr noundef %0, i32 noundef %8, i32 noundef 1, i32 noundef 0)
  %15 = add i32 %2, 2
  ret i32 %15
}